; Function Attrs: mustprogress uwtable
define hidden void @_ZN4cvc58internal6theory7strings15SeqUnitTypeRule11computeTypeEPNS0_11NodeManagerENS0_12NodeTemplateILb0EEEbPSo(ptr dead_on_unwind noalias writable sret(%"class.cvc5::internal::TypeNode") align 8 %0, ptr noundef %1, ptr noundef readonly captures(none) %2, i1 noundef zeroext %3, ptr noundef readnone captures(none) %4) local_unnamed_addr #3 align 2 personality ptr @__gxx_personality_v0 {
  %6 = alloca %"class.cvc5::internal::NodeTemplate", align 8
  %7 = alloca %"class.cvc5::internal::TypeNode", align 8
  %8 = alloca %"class.cvc5::internal::TypeNode", align 8
  call void @llvm.lifetime.start.p0(i64 8, ptr nonnull %7) #17
  %9 = load ptr, ptr %2, align 8, !tbaa !18, !noalias !242
  %10 = getelementptr inbounds nuw i8, ptr %9, i64 8
  %11 = load i64, ptr %10, align 8, !noalias !242
  %12 = trunc i64 %11 to i32
  %13 = and i32 %12, 1023
  %14 = icmp eq i32 %13, 1023
  %15 = select i1 %14, i32 -1, i32 %13
  %16 = tail call noundef i32 @_ZN4cvc58internal4kind10metaKindOfENS1_6Kind_tE(i32 noundef %15), !noalias !242
  %17 = icmp eq i32 %16, 2
  %18 = getelementptr inbounds nuw i8, ptr %9, i64 24
  %19 = zext i1 %17 to i64
  %20 = getelementptr inbounds nuw [0 x ptr], ptr %18, i64 0, i64 %19
  %21 = load ptr, ptr %20, align 8, !tbaa !17, !noalias !242
  call void @llvm.lifetime.start.p0(i64 8, ptr nonnull %6)
  store ptr %21, ptr %6, align 8, !tbaa !18, !noalias !245
  call void @_ZN4cvc58internal11NodeManager7getTypeENS0_12NodeTemplateILb0EEEbPSo(ptr dead_on_unwind nonnull writable sret(%"class.cvc5::internal::TypeNode") align 8 %7, ptr noundef nonnull %6, i1 noundef zeroext false, ptr noundef null)
  call void @llvm.lifetime.end.p0(i64 8, ptr nonnull %6)
  %22 = load ptr, ptr %7, align 8, !tbaa !3
  store ptr %22, ptr %8, align 8, !tbaa !3
  %23 = load i64, ptr %22, align 8
  %24 = lshr i64 %23, 40
  %25 = trunc nuw nsw i64 %24 to i32
  %26 = and i32 %25, 1048575
  %27 = icmp samesign ult i32 %26, 1048574
  br i1 %27, label %28, label %33, !prof !14

28:                                               ; preds = %5
  %29 = add i64 %23, 1099511627776
  %30 = and i64 %29, 1152920405095219200
  %31 = and i64 %23, -1152920405095219201
  %32 = or disjoint i64 %30, %31
  store i64 %32, ptr %22, align 8
  br label %_ZN4cvc58internal8TypeNodeC2ERKS1_.exit

33:                                               ; preds = %5
  %34 = icmp eq i32 %26, 1048574
  br i1 %34, label %35, label %_ZN4cvc58internal8TypeNodeC2ERKS1_.exit, !prof !15

35:                                               ; preds = %33
  %36 = or i64 %23, 1152920405095219200
  store i64 %36, ptr %22, align 8
  invoke void @_ZN4cvc58internal4expr9NodeValue20markRefCountMaxedOutEv(ptr noundef nonnull align 8 dereferenceable(24) %22)
          to label %_ZN4cvc58internal8TypeNodeC2ERKS1_.exit unwind label %64

_ZN4cvc58internal8TypeNodeC2ERKS1_.exit:          ; preds = %33, %28, %35
  invoke void @_ZN4cvc58internal11NodeManager14mkSequenceTypeENS0_8TypeNodeE(ptr dead_on_unwind writable sret(%"class.cvc5::internal::TypeNode") align 8 %0, ptr noundef nonnull align 8 dereferenceable(3560) %1, ptr noundef nonnull %8)
          to label %37 unwind label %66

37:                                               ; preds = %_ZN4cvc58internal8TypeNodeC2ERKS1_.exit
  %38 = load ptr, ptr %8, align 8, !tbaa !3
  %39 = load i64, ptr %38, align 8
  %40 = and i64 %39, 1152920405095219200
  %.not.i.i = icmp eq i64 %40, 1152920405095219200
  br i1 %.not.i.i, label %_ZN4cvc58internal8TypeNodeD2Ev.exit, label %41, !prof !15

41:                                               ; preds = %37
  %42 = add i64 %39, 1152920405095219200
  %43 = and i64 %42, 1152920405095219200
  %44 = and i64 %39, -1152920405095219201
  %45 = or disjoint i64 %43, %44
  store i64 %45, ptr %38, align 8
  %46 = icmp eq i64 %43, 0
  br i1 %46, label %47, label %_ZN4cvc58internal8TypeNodeD2Ev.exit, !prof !15

47:                                               ; preds = %41
  invoke void @_ZN4cvc58internal4expr9NodeValue15markForDeletionEv(ptr noundef nonnull align 8 dereferenceable(24) %38)
          to label %_ZN4cvc58internal8TypeNodeD2Ev.exit unwind label %48

48:                                               ; preds = %47
  %49 = landingpad { ptr, i32 }
          catch ptr null
  %50 = extractvalue { ptr, i32 } %49, 0
  call void @__clang_call_terminate(ptr %50) #19
  unreachable

_ZN4cvc58internal8TypeNodeD2Ev.exit:              ; preds = %37, %41, %47
  %51 = load ptr, ptr %7, align 8, !tbaa !3
  %52 = load i64, ptr %51, align 8
  %53 = and i64 %52, 1152920405095219200
  %.not.i.i6 = icmp eq i64 %53, 1152920405095219200
  br i1 %.not.i.i6, label %_ZN4cvc58internal8TypeNodeD2Ev.exit7, label %54, !prof !15

54:                                               ; preds = %_ZN4cvc58internal8TypeNodeD2Ev.exit
  %55 = add i64 %52, 1152920405095219200
  %56 = and i64 %55, 1152920405095219200
  %57 = and i64 %52, -1152920405095219201
  %58 = or disjoint i64 %56, %57
  store i64 %58, ptr %51, align 8
  %59 = icmp eq i64 %56, 0
  br i1 %59, label %60, label %_ZN4cvc58internal8TypeNodeD2Ev.exit7, !prof !15

60:                                               ; preds = %54
  invoke void @_ZN4cvc58internal4expr9NodeValue15markForDeletionEv(ptr noundef nonnull align 8 dereferenceable(24) %51)
          to label %_ZN4cvc58internal8TypeNodeD2Ev.exit7 unwind label %61

61:                                               ; preds = %60
  %62 = landingpad { ptr, i32 }
          catch ptr null
  %63 = extractvalue { ptr, i32 } %62, 0
  call void @__clang_call_terminate(ptr %63) #19
  unreachable

_ZN4cvc58internal8TypeNodeD2Ev.exit7:             ; preds = %_ZN4cvc58internal8TypeNodeD2Ev.exit, %54, %60
  call void @llvm.lifetime.end.p0(i64 8, ptr nonnull %7) #17
  ret void

64:                                               ; preds = %35
  %65 = landingpad { ptr, i32 }
          cleanup
  br label %68

66:                                               ; preds = %_ZN4cvc58internal8TypeNodeC2ERKS1_.exit
  %67 = landingpad { ptr, i32 }
          cleanup
  call void @_ZN4cvc58internal8TypeNodeD2Ev(ptr noundef nonnull align 8 dereferenceable(8) %8) #17
  br label %68

68:                                               ; preds = %66, %64
  %.pn = phi { ptr, i32 } [ %67, %66 ], [ %65, %64 ]
  call void @_ZN4cvc58internal8TypeNodeD2Ev(ptr noundef nonnull align 8 dereferenceable(8) %7) #17
  call void @llvm.lifetime.end.p0(i64 8, ptr nonnull %7) #17
  resume { ptr, i32 } %.pn
}